target datalayout = "e-m:e-p270:32:32-p271:32:32-p272:64:64-i64:64-i128:128-f80:128-n8:16:32:64-S128"
target triple = "x86_64-pc-linux-gnu"

%struct.CFHDDSPContext = type { ptr, ptr, ptr }

; Function Attrs: cold nounwind optsize uwtable
define void @ff_cfhddsp_init(ptr noundef %0, i32 noundef %1, i32 noundef %2) #0 {
  %4 = alloca ptr, align 8
  %5 = alloca i32, align 4
  %6 = alloca i32, align 4
  store ptr %0, ptr %4, align 8, !tbaa !4
  store i32 %1, ptr %5, align 4, !tbaa !9
  store i32 %2, ptr %6, align 4, !tbaa !9
  %7 = load ptr, ptr %4, align 8, !tbaa !4
  %8 = getelementptr inbounds nuw %struct.CFHDDSPContext, ptr %7, i32 0, i32 0
  store ptr @horiz_filter, ptr %8, align 8, !tbaa !11
  %9 = load ptr, ptr %4, align 8, !tbaa !4
  %10 = getelementptr inbounds nuw %struct.CFHDDSPContext, ptr %9, i32 0, i32 1
  store ptr @vert_filter, ptr %10, align 8, !tbaa !13
  %11 = load i32, ptr %6, align 4, !tbaa !9
  %12 = icmp ne i32 %11, 0
  br i1 %12, label %13, label %16

13:                                               ; preds = %3
  %14 = load ptr, ptr %4, align 8, !tbaa !4
  %15 = getelementptr inbounds nuw %struct.CFHDDSPContext, ptr %14, i32 0, i32 2
  store ptr @horiz_filter_clip_bayer, ptr %15, align 8, !tbaa !14
  br label %19

16:                                               ; preds = %3
  %17 = load ptr, ptr %4, align 8, !tbaa !4
  %18 = getelementptr inbounds nuw %struct.CFHDDSPContext, ptr %17, i32 0, i32 2
  store ptr @horiz_filter_clip, ptr %18, align 8, !tbaa !14
  br label %19

19:                                               ; preds = %16, %13
  ret void
}