; Function Attrs: cold mustprogress nofree norecurse nosync nounwind optsize willreturn memory(argmem: write) uwtable
define void @ff_cfhddsp_init(ptr noundef writeonly captures(none) initializes((0, 24)) %0, i32 noundef %1, i32 noundef %2) local_unnamed_addr #0 {
  store ptr @horiz_filter, ptr %0, align 8, !tbaa !4
  %4 = getelementptr inbounds nuw i8, ptr %0, i64 8
  store ptr @vert_filter, ptr %4, align 8, !tbaa !9
  %.not = icmp eq i32 %2, 0
  %spec.select = select i1 %.not, ptr @horiz_filter_clip, ptr @horiz_filter_clip_bayer
  %5 = getelementptr inbounds nuw i8, ptr %0, i64 16
  store ptr %spec.select, ptr %5, align 8, !tbaa !10
  ret void
}